target datalayout = "e-m:e-p270:32:32-p271:32:32-p272:64:64-i64:64-i128:128-f80:128-n8:16:32:64-S128"
target triple = "x86_64-pc-linux-gnu"

%class.debug_module_t = type <{ %class.abstract_device_t, %struct.debug_module_config_t, i32, i32, i32, i32, ptr, [4 x i8], [48 x i8], [4 x i8], ptr, [8 x i8], %"class.std::vector", [1024 x i8], %struct.dmcontrol_t, %struct.dmstatus_t, %struct.abstractcs_t, %struct.abstractauto_t, i32, i16, [2 x i8], %"class.std::vector.0", %struct.sbcs_t, [4 x i32], [4 x i32], i32, i32, i8, [3 x i8], i32, [2 x i8], [2 x i8], i32, i32, [4 x i8] }>
%class.abstract_device_t = type { ptr }
%struct.debug_module_config_t = type <{ i32, i32, i8, [3 x i8], i32, i8, i8, i8, i8, i8, [3 x i8] }>
%"class.std::vector" = type { %"struct.std::_Vector_base" }
%"struct.std::_Vector_base" = type { %"struct.std::_Vector_base<hart_debug_state_t, std::allocator<hart_debug_state_t>>::_Vector_impl" }
%"struct.std::_Vector_base<hart_debug_state_t, std::allocator<hart_debug_state_t>>::_Vector_impl" = type { %"struct.std::_Vector_base<hart_debug_state_t, std::allocator<hart_debug_state_t>>::_Vector_impl_data" }
%"struct.std::_Vector_base<hart_debug_state_t, std::allocator<hart_debug_state_t>>::_Vector_impl_data" = type { ptr, ptr, ptr }
%struct.dmcontrol_t = type { i8, i8, i8, i32, i8, i8, i8 }
%struct.dmstatus_t = type { i8, i8, i8, i8, i8, i8, i8, i8, i8, i8, i8, i8, i8, i8, i8, i8, i32 }
%struct.abstractcs_t = type { i8, i32, i32, i32 }
%struct.abstractauto_t = type { i32, i32 }
%"class.std::vector.0" = type { %"struct.std::_Bvector_base" }
%"struct.std::_Bvector_base" = type { %"struct.std::_Bvector_base<std::allocator<bool>>::_Bvector_impl" }
%"struct.std::_Bvector_base<std::allocator<bool>>::_Bvector_impl" = type { %"struct.std::_Bvector_base<std::allocator<bool>>::_Bvector_impl_data" }
%"struct.std::_Bvector_base<std::allocator<bool>>::_Bvector_impl_data" = type { %"struct.std::_Bit_iterator", %"struct.std::_Bit_iterator", ptr }
%"struct.std::_Bit_iterator" = type { %"struct.std::_Bit_iterator_base.base", [4 x i8] }
%"struct.std::_Bit_iterator_base.base" = type <{ ptr, i32 }>
%struct.sbcs_t = type { i32, i8, i32, i8, i8, i32, i32, i8, i8, i8, i8, i8, i8 }

; Function Attrs: mustprogress nounwind uwtable
define noundef zeroext i1 @_ZN14debug_module_t4loadEmmPh(ptr noundef nonnull align 8 dereferenceable(1372) %0, i64 noundef %1, i64 noundef %2, ptr noundef %3) unnamed_addr #7 align 2 {
  %5 = alloca i1, align 1
  %6 = alloca ptr, align 8
  %7 = alloca i64, align 8
  %8 = alloca i64, align 8
  %9 = alloca ptr, align 8
  store ptr %0, ptr %6, align 8, !tbaa !3
  store i64 %1, ptr %7, align 8, !tbaa !66
  store i64 %2, ptr %8, align 8, !tbaa !66
  store ptr %3, ptr %9, align 8, !tbaa !76
  %10 = load ptr, ptr %6, align 8
  %11 = load i64, ptr %7, align 8, !tbaa !66
  %12 = add i64 0, %11
  store i64 %12, ptr %7, align 8, !tbaa !66
  %13 = load i64, ptr %7, align 8, !tbaa !66
  %14 = icmp uge i64 %13, 2048
  br i1 %14, label %15, label %26

15:                                               ; preds = %4
  %16 = load i64, ptr %7, align 8, !tbaa !66
  %17 = load i64, ptr %8, align 8, !tbaa !66
  %18 = add i64 %16, %17
  %19 = icmp ule i64 %18, 2164
  br i1 %19, label %20, label %26

20:                                               ; preds = %15
  %21 = load ptr, ptr %9, align 8, !tbaa !76
  %22 = load i64, ptr %7, align 8, !tbaa !66
  %23 = getelementptr inbounds nuw i8, ptr @_ZL13debug_rom_raw, i64 %22
  %24 = getelementptr inbounds i8, ptr %23, i64 -2048
  %25 = load i64, ptr %8, align 8, !tbaa !66
  call void @llvm.memcpy.p0.p0.i64(ptr align 1 %21, ptr align 1 %24, i64 %25, i1 false)
  store i1 true, ptr %5, align 1
  br label %131

26:                                               ; preds = %15, %4
  %27 = load i64, ptr %7, align 8, !tbaa !66
  %28 = icmp uge i64 %27, 768
  br i1 %28, label %29, label %42

29:                                               ; preds = %26
  %30 = load i64, ptr %7, align 8, !tbaa !66
  %31 = load i64, ptr %8, align 8, !tbaa !66
  %32 = add i64 %30, %31
  %33 = icmp ule i64 %32, 772
  br i1 %33, label %34, label %42

34:                                               ; preds = %29
  %35 = load ptr, ptr %9, align 8, !tbaa !76
  %36 = getelementptr inbounds nuw %class.debug_module_t, ptr %10, i32 0, i32 7
  %37 = getelementptr inbounds [4 x i8], ptr %36, i64 0, i64 0
  %38 = load i64, ptr %7, align 8, !tbaa !66
  %39 = getelementptr inbounds nuw i8, ptr %37, i64 %38
  %40 = getelementptr inbounds i8, ptr %39, i64 -768
  %41 = load i64, ptr %8, align 8, !tbaa !66
  call void @llvm.memcpy.p0.p0.i64(ptr align 1 %35, ptr align 1 %40, i64 %41, i1 false)
  store i1 true, ptr %5, align 1
  br label %131

42:                                               ; preds = %29, %26
  %43 = load i64, ptr %7, align 8, !tbaa !66
  %44 = icmp uge i64 %43, 1024
  br i1 %44, label %45, label %58

45:                                               ; preds = %42
  %46 = load i64, ptr %7, align 8, !tbaa !66
  %47 = load i64, ptr %8, align 8, !tbaa !66
  %48 = add i64 %46, %47
  %49 = icmp ule i64 %48, 2048
  br i1 %49, label %50, label %58

50:                                               ; preds = %45
  %51 = load ptr, ptr %9, align 8, !tbaa !76
  %52 = getelementptr inbounds nuw %class.debug_module_t, ptr %10, i32 0, i32 13
  %53 = getelementptr inbounds [1024 x i8], ptr %52, i64 0, i64 0
  %54 = load i64, ptr %7, align 8, !tbaa !66
  %55 = getelementptr inbounds nuw i8, ptr %53, i64 %54
  %56 = getelementptr inbounds i8, ptr %55, i64 -1024
  %57 = load i64, ptr %8, align 8, !tbaa !66
  call void @llvm.memcpy.p0.p0.i64(ptr align 1 %51, ptr align 1 %56, i64 %57, i1 false)
  store i1 true, ptr %5, align 1
  br label %131

58:                                               ; preds = %45, %42
  %59 = load i64, ptr %7, align 8, !tbaa !66
  %60 = getelementptr inbounds nuw %class.debug_module_t, ptr %10, i32 0, i32 4
  %61 = load i32, ptr %60, align 8, !tbaa !48
  %62 = zext i32 %61 to i64
  %63 = icmp uge i64 %59, %62
  br i1 %63, label %64, label %85

64:                                               ; preds = %58
  %65 = load i64, ptr %7, align 8, !tbaa !66
  %66 = load i64, ptr %8, align 8, !tbaa !66
  %67 = add i64 %65, %66
  %68 = getelementptr inbounds nuw %class.debug_module_t, ptr %10, i32 0, i32 4
  %69 = load i32, ptr %68, align 8, !tbaa !48
  %70 = zext i32 %69 to i64
  %71 = add i64 %70, 48
  %72 = icmp ule i64 %67, %71
  br i1 %72, label %73, label %85

73:                                               ; preds = %64
  %74 = load ptr, ptr %9, align 8, !tbaa !76
  %75 = getelementptr inbounds nuw %class.debug_module_t, ptr %10, i32 0, i32 8
  %76 = getelementptr inbounds [48 x i8], ptr %75, i64 0, i64 0
  %77 = load i64, ptr %7, align 8, !tbaa !66
  %78 = getelementptr inbounds nuw i8, ptr %76, i64 %77
  %79 = getelementptr inbounds nuw %class.debug_module_t, ptr %10, i32 0, i32 4
  %80 = load i32, ptr %79, align 8, !tbaa !48
  %81 = zext i32 %80 to i64
  %82 = sub i64 0, %81
  %83 = getelementptr inbounds i8, ptr %78, i64 %82
  %84 = load i64, ptr %8, align 8, !tbaa !66
  call void @llvm.memcpy.p0.p0.i64(ptr align 1 %74, ptr align 1 %83, i64 %84, i1 false)
  store i1 true, ptr %5, align 1
  br label %131

85:                                               ; preds = %64, %58
  %86 = load i64, ptr %7, align 8, !tbaa !66
  %87 = icmp uge i64 %86, 896
  br i1 %87, label %88, label %101

88:                                               ; preds = %85
  %89 = load i64, ptr %7, align 8, !tbaa !66
  %90 = load i64, ptr %8, align 8, !tbaa !66
  %91 = add i64 %89, %90
  %92 = icmp ule i64 %91, 904
  br i1 %92, label %93, label %101

93:                                               ; preds = %88
  %94 = load ptr, ptr %9, align 8, !tbaa !76
  %95 = getelementptr inbounds nuw %class.debug_module_t, ptr %10, i32 0, i32 11
  %96 = getelementptr inbounds [8 x i8], ptr %95, i64 0, i64 0
  %97 = load i64, ptr %7, align 8, !tbaa !66
  %98 = getelementptr inbounds nuw i8, ptr %96, i64 %97
  %99 = getelementptr inbounds i8, ptr %98, i64 -896
  %100 = load i64, ptr %8, align 8, !tbaa !66
  call void @llvm.memcpy.p0.p0.i64(ptr align 1 %94, ptr align 1 %99, i64 %100, i1 false)
  store i1 true, ptr %5, align 1
  br label %131

101:                                              ; preds = %88, %85
  %102 = load i64, ptr %7, align 8, !tbaa !66
  %103 = getelementptr inbounds nuw %class.debug_module_t, ptr %10, i32 0, i32 3
  %104 = load i32, ptr %103, align 4, !tbaa !47
  %105 = zext i32 %104 to i64
  %106 = icmp uge i64 %102, %105
  br i1 %106, label %107, label %130

107:                                              ; preds = %101
  %108 = load i64, ptr %7, align 8, !tbaa !66
  %109 = load i64, ptr %8, align 8, !tbaa !66
  %110 = add i64 %108, %109
  %111 = getelementptr inbounds nuw %class.debug_module_t, ptr %10, i32 0, i32 3
  %112 = load i32, ptr %111, align 4, !tbaa !47
  %113 = getelementptr inbounds nuw %class.debug_module_t, ptr %10, i32 0, i32 2
  %114 = load i32, ptr %113, align 8, !tbaa !24
  %115 = add i32 %112, %114
  %116 = zext i32 %115 to i64
  %117 = icmp ule i64 %110, %116
  br i1 %117, label %118, label %130

118:                                              ; preds = %107
  %119 = load ptr, ptr %9, align 8, !tbaa !76
  %120 = getelementptr inbounds nuw %class.debug_module_t, ptr %10, i32 0, i32 10
  %121 = load ptr, ptr %120, align 8, !tbaa !57
  %122 = load i64, ptr %7, align 8, !tbaa !66
  %123 = getelementptr inbounds nuw i8, ptr %121, i64 %122
  %124 = getelementptr inbounds nuw %class.debug_module_t, ptr %10, i32 0, i32 3
  %125 = load i32, ptr %124, align 4, !tbaa !47
  %126 = zext i32 %125 to i64
  %127 = sub i64 0, %126
  %128 = getelementptr inbounds i8, ptr %123, i64 %127
  %129 = load i64, ptr %8, align 8, !tbaa !66
  call void @llvm.memcpy.p0.p0.i64(ptr align 1 %119, ptr align 1 %128, i64 %129, i1 false)
  store i1 true, ptr %5, align 1
  br label %131

130:                                              ; preds = %107, %101
  store i1 false, ptr %5, align 1
  br label %131

131:                                              ; preds = %130, %118, %93, %73, %50, %34, %20
  %132 = load i1, ptr %5, align 1
  ret i1 %132
}