; Function Attrs: mustprogress nofree norecurse nosync nounwind willreturn memory(readwrite, inaccessiblemem: none) uwtable
define noundef zeroext i1 @_ZN14debug_module_t4loadEmmPh(ptr noundef nonnull readonly align 8 captures(none) dereferenceable(1372) %0, i64 noundef %1, i64 noundef %2, ptr noundef writeonly captures(none) %3) unnamed_addr #13 align 2 {
  %5 = icmp ugt i64 %1, 2047
  %6 = add i64 %2, %1
  %7 = icmp ult i64 %6, 2165
  %or.cond = and i1 %5, %7
  br i1 %or.cond, label %8, label %11

8:                                                ; preds = %4
  %9 = getelementptr inbounds nuw i8, ptr @_ZL13debug_rom_raw, i64 %1
  %10 = getelementptr inbounds i8, ptr %9, i64 -2048
  br label %.sink.split

11:                                               ; preds = %4
  %12 = icmp ugt i64 %1, 767
  %13 = icmp ult i64 %6, 773
  %or.cond46 = and i1 %12, %13
  br i1 %or.cond46, label %14, label %18

14:                                               ; preds = %11
  %15 = getelementptr inbounds nuw i8, ptr %0, i64 56
  %16 = getelementptr inbounds nuw i8, ptr %15, i64 %1
  %17 = getelementptr inbounds i8, ptr %16, i64 -768
  br label %.sink.split

18:                                               ; preds = %11
  %19 = icmp ugt i64 %1, 1023
  %20 = icmp ult i64 %6, 2049
  %or.cond48 = and i1 %19, %20
  br i1 %or.cond48, label %21, label %25

21:                                               ; preds = %18
  %22 = getelementptr inbounds nuw i8, ptr %0, i64 152
  %23 = getelementptr inbounds nuw i8, ptr %22, i64 %1
  %24 = getelementptr inbounds i8, ptr %23, i64 -1024
  br label %.sink.split

25:                                               ; preds = %18
  %26 = getelementptr inbounds nuw i8, ptr %0, i64 40
  %27 = load i32, ptr %26, align 8, !tbaa !43
  %28 = zext i32 %27 to i64
  %.not = icmp ult i64 %1, %28
  %29 = add nuw nsw i64 %28, 48
  %.not41 = icmp ugt i64 %6, %29
  %or.cond51 = select i1 %.not, i1 true, i1 %.not41
  br i1 %or.cond51, label %35, label %30

30:                                               ; preds = %25
  %31 = getelementptr inbounds nuw i8, ptr %0, i64 60
  %32 = getelementptr inbounds nuw i8, ptr %31, i64 %1
  %33 = sub nsw i64 0, %28
  %34 = getelementptr inbounds i8, ptr %32, i64 %33
  br label %.sink.split

35:                                               ; preds = %25
  %36 = icmp ugt i64 %1, 895
  %37 = icmp ult i64 %6, 905
  %or.cond50 = and i1 %36, %37
  br i1 %or.cond50, label %38, label %42

38:                                               ; preds = %35
  %39 = getelementptr inbounds nuw i8, ptr %0, i64 120
  %40 = getelementptr inbounds nuw i8, ptr %39, i64 %1
  %41 = getelementptr inbounds i8, ptr %40, i64 -896
  br label %.sink.split

42:                                               ; preds = %35
  %43 = getelementptr inbounds nuw i8, ptr %0, i64 36
  %44 = load i32, ptr %43, align 4, !tbaa !42
  %45 = zext i32 %44 to i64
  %.not42 = icmp ult i64 %1, %45
  br i1 %.not42, label %57, label %46

46:                                               ; preds = %42
  %47 = getelementptr inbounds nuw i8, ptr %0, i64 32
  %48 = load i32, ptr %47, align 8, !tbaa !17
  %49 = add i32 %48, %44
  %50 = zext i32 %49 to i64
  %.not43 = icmp ugt i64 %6, %50
  br i1 %.not43, label %57, label %51

51:                                               ; preds = %46
  %52 = getelementptr inbounds nuw i8, ptr %0, i64 112
  %53 = load ptr, ptr %52, align 8, !tbaa !66
  %54 = getelementptr inbounds nuw i8, ptr %53, i64 %1
  %55 = sub nsw i64 0, %45
  %56 = getelementptr inbounds i8, ptr %54, i64 %55
  br label %.sink.split

.sink.split:                                      ; preds = %8, %14, %21, %30, %38, %51
  %.sink = phi ptr [ %56, %51 ], [ %41, %38 ], [ %34, %30 ], [ %24, %21 ], [ %17, %14 ], [ %10, %8 ]
  tail call void @llvm.memcpy.p0.p0.i64(ptr align 1 %3, ptr align 1 %.sink, i64 %2, i1 false)
  br label %57

57:                                               ; preds = %.sink.split, %42, %46
  %.0 = phi i1 [ false, %46 ], [ false, %42 ], [ true, %.sink.split ]
  ret i1 %.0
}